target datalayout = "e-m:e-p270:32:32-p271:32:32-p272:64:64-i64:64-i128:128-f80:128-n8:16:32:64-S128"
target triple = "x86_64-pc-linux-gnu"

@the_repository = external global ptr, align 8
@.str.8 = private unnamed_addr constant [1 x i8] zeroinitializer, align 1
@git_gettext_enabled = external global i32, align 4
@.str.28 = private unnamed_addr constant [37 x i8] c"failed to initialize worktree config\00", align 1
@.str.29 = private unnamed_addr constant [20 x i8] c"core.sparseCheckout\00", align 1
@.str.30 = private unnamed_addr constant [5 x i8] c"true\00", align 1
@.str.31 = private unnamed_addr constant [6 x i8] c"false\00", align 1
@.str.32 = private unnamed_addr constant [24 x i8] c"core.sparseCheckoutCone\00", align 1

; Function Attrs: inlinehint nounwind uwtable
define internal i32 @const_error() #4 {
  ret i32 -1
}

; Function Attrs: inlinehint nounwind uwtable
define internal ptr @_(ptr noundef %0) #4 {
  %2 = alloca ptr, align 8
  %3 = alloca ptr, align 8
  store ptr %0, ptr %3, align 8, !tbaa !11
  %4 = load ptr, ptr %3, align 8, !tbaa !11
  %5 = load i8, ptr %4, align 1, !tbaa !90
  %6 = icmp ne i8 %5, 0
  br i1 %6, label %8, label %7

7:                                                ; preds = %1
  store ptr @.str.8, ptr %2, align 8
  br label %16

8:                                                ; preds = %1
  %9 = load i32, ptr @git_gettext_enabled, align 4, !tbaa !4
  %10 = icmp ne i32 %9, 0
  br i1 %10, label %13, label %11

11:                                               ; preds = %8
  %12 = load ptr, ptr %3, align 8, !tbaa !11
  store ptr %12, ptr %2, align 8
  br label %16

13:                                               ; preds = %8
  %14 = load ptr, ptr %3, align 8, !tbaa !11
  %15 = call ptr @dcgettext(ptr noundef null, ptr noundef %14, i32 noundef 5) #9
  store ptr %15, ptr %2, align 8
  br label %16

16:                                               ; preds = %13, %11, %7
  %17 = load ptr, ptr %2, align 8
  ret ptr %17
}

; Function Attrs: nounwind uwtable
define internal i32 @set_config(i32 noundef %0) #0 {
  %2 = alloca i32, align 4
  %3 = alloca i32, align 4
  store i32 %0, ptr %3, align 4, !tbaa !4
  %4 = load ptr, ptr @the_repository, align 8, !tbaa !13
  %5 = call i32 @init_worktree_config(ptr noundef %4)
  %6 = icmp ne i32 %5, 0
  br i1 %6, label %7, label %11

7:                                                ; preds = %1
  %8 = call ptr @_(ptr noundef @.str.28)
  %9 = call i32 (ptr, ...) @error(ptr noundef %8)
  %10 = call i32 @const_error()
  store i32 1, ptr %2, align 4
  br label %33

11:                                               ; preds = %1
  %12 = load ptr, ptr @the_repository, align 8, !tbaa !13
  %13 = load i32, ptr %3, align 4, !tbaa !4
  %14 = icmp ne i32 %13, 0
  %15 = select i1 %14, ptr @.str.30, ptr @.str.31
  %16 = call i32 @repo_config_set_worktree_gently(ptr noundef %12, ptr noundef @.str.29, ptr noundef %15)
  %17 = icmp ne i32 %16, 0
  br i1 %17, label %25, label %18

18:                                               ; preds = %11
  %19 = load ptr, ptr @the_repository, align 8, !tbaa !13
  %20 = load i32, ptr %3, align 4, !tbaa !4
  %21 = icmp eq i32 %20, 2
  %22 = select i1 %21, ptr @.str.30, ptr @.str.31
  %23 = call i32 @repo_config_set_worktree_gently(ptr noundef %19, ptr noundef @.str.32, ptr noundef %22)
  %24 = icmp ne i32 %23, 0
  br i1 %24, label %25, label %26

25:                                               ; preds = %18, %11
  store i32 1, ptr %2, align 4
  br label %33

26:                                               ; preds = %18
  %27 = load i32, ptr %3, align 4, !tbaa !4
  %28 = icmp eq i32 %27, 0
  br i1 %28, label %29, label %32

29:                                               ; preds = %26
  %30 = load ptr, ptr @the_repository, align 8, !tbaa !13
  %31 = call i32 @set_sparse_index_config(ptr noundef %30, i32 noundef 0)
  store i32 %31, ptr %2, align 4
  br label %33

32:                                               ; preds = %26
  store i32 0, ptr %2, align 4
  br label %33

33:                                               ; preds = %32, %29, %25, %7
  %34 = load i32, ptr %2, align 4
  ret i32 %34
}