; Function Attrs: nounwind uwtable
define internal fastcc i32 @set_config(i32 noundef range(i32 0, 3) %0) unnamed_addr #0 {
  %2 = load ptr, ptr @the_repository, align 8, !tbaa !17
  %3 = tail call i32 @init_worktree_config(ptr noundef %2) #13
  %.not = icmp eq i32 %3, 0
  br i1 %.not, label %9, label %4

4:                                                ; preds = %1
  %5 = load i32, ptr @git_gettext_enabled, align 4, !tbaa !37
  %.not4.i = icmp eq i32 %5, 0
  br i1 %.not4.i, label %_.exit, label %6

6:                                                ; preds = %4
  %7 = tail call ptr @dcgettext(ptr noundef null, ptr noundef nonnull @.str.28, i32 noundef 5) #13
  br label %_.exit

_.exit:                                           ; preds = %4, %6
  %.0.i = phi ptr [ %7, %6 ], [ @.str.28, %4 ]
  %8 = tail call i32 (ptr, ...) @error(ptr noundef %.0.i) #13
  br label %22

9:                                                ; preds = %1
  %10 = load ptr, ptr @the_repository, align 8, !tbaa !17
  %.not4.not = icmp eq i32 %0, 0
  %11 = select i1 %.not4.not, ptr @.str.31, ptr @.str.30
  %12 = tail call i32 @repo_config_set_worktree_gently(ptr noundef %10, ptr noundef nonnull @.str.29, ptr noundef nonnull %11) #13
  %.not5 = icmp eq i32 %12, 0
  br i1 %.not5, label %13, label %22

13:                                               ; preds = %9
  %14 = load ptr, ptr @the_repository, align 8, !tbaa !17
  %15 = icmp eq i32 %0, 2
  %16 = select i1 %15, ptr @.str.30, ptr @.str.31
  %17 = tail call i32 @repo_config_set_worktree_gently(ptr noundef %14, ptr noundef nonnull @.str.32, ptr noundef nonnull %16) #13
  %.not6.not = icmp ne i32 %17, 0
  %18 = or i32 %17, %0
  %brmerge.not = icmp eq i32 %18, 0
  %.mux = zext i1 %.not6.not to i32
  br i1 %brmerge.not, label %19, label %22

19:                                               ; preds = %13
  %20 = load ptr, ptr @the_repository, align 8, !tbaa !17
  %21 = tail call i32 @set_sparse_index_config(ptr noundef %20, i32 noundef 0) #13
  br label %22

22:                                               ; preds = %13, %9, %19, %_.exit
  %.0 = phi i32 [ 1, %_.exit ], [ %21, %19 ], [ %.mux, %13 ], [ 1, %9 ]
  ret i32 %.0
}